target datalayout = "e-m:e-p270:32:32-p271:32:32-p272:64:64-i64:64-i128:128-f80:128-n8:16:32:64-S128"
target triple = "x86_64-pc-linux-gnu"

%struct.anon.805 = type { i32 }
%struct._err_stackitem = type { ptr, ptr }
%struct._ts = type { ptr, ptr, ptr, i64, %struct.anon.805, i32, i32, i32, i32, i32, i32, i32, i32, ptr, ptr, ptr, ptr, ptr, ptr, ptr, ptr, i32, ptr, i64, i64, ptr, i64, i32, ptr, ptr, ptr, i64, i64, ptr, ptr, ptr, %struct._err_stackitem, ptr, i64, ptr, ptr }

; Function Attrs: nounwind uwtable
define internal void @init_interp_create_gil(ptr noundef %0, i32 noundef %1) #1 {
  %3 = alloca ptr, align 8
  %4 = alloca i32, align 4
  %5 = alloca i32, align 4
  store ptr %0, ptr %3, align 8, !tbaa !214
  store i32 %1, ptr %4, align 4, !tbaa !4
  %6 = load ptr, ptr %3, align 8, !tbaa !214
  %7 = getelementptr inbounds nuw %struct._ts, ptr %6, i32 0, i32 2
  %8 = load ptr, ptr %7, align 8, !tbaa !215
  call void @_PyEval_FiniGIL(ptr noundef %8)
  %9 = load ptr, ptr %3, align 8, !tbaa !214
  call void @_PyGILState_SetTstate(ptr noundef %9)
  call void @llvm.lifetime.start.p0(i64 4, ptr %5) #14
  %10 = load i32, ptr %4, align 4, !tbaa !4
  %11 = icmp eq i32 %10, 2
  %12 = zext i1 %11 to i32
  store i32 %12, ptr %5, align 4, !tbaa !4
  %13 = load ptr, ptr %3, align 8, !tbaa !214
  %14 = load i32, ptr %5, align 4, !tbaa !4
  call void @_PyEval_InitGIL(ptr noundef %13, i32 noundef %14)
  call void @llvm.lifetime.end.p0(i64 4, ptr %5) #14
  ret void
}