; Function Attrs: nounwind uwtable
define internal fastcc void @init_interp_create_gil(ptr noundef nonnull %0, i32 noundef %1) unnamed_addr #1 {
  %3 = getelementptr inbounds nuw i8, ptr %0, i64 16
  %4 = load ptr, ptr %3, align 8, !tbaa !228
  tail call void @_PyEval_FiniGIL(ptr noundef %4) #23
  tail call void @_PyGILState_SetTstate(ptr noundef nonnull %0) #23
  %5 = icmp eq i32 %1, 2
  %6 = zext i1 %5 to i32
  tail call void @_PyEval_InitGIL(ptr noundef nonnull %0, i32 noundef %6) #23
  ret void
}